; Function Attrs: mustprogress nounwind uwtable
define hidden void @_ZN16java_lang_Thread10set_daemonEP7oopDesc(ptr noundef %0) local_unnamed_addr #0 align 2 {
  %2 = load i32, ptr @_ZN16java_lang_Thread14_holder_offsetE, align 4
  %3 = sext i32 %2 to i64
  %4 = load ptr, ptr @_ZN14AccessInternal15RuntimeDispatchILm286790EP7oopDescLNS_11BarrierTypeE3EE13_load_at_funcE, align 8
  %5 = tail call noundef ptr %4(ptr noundef nonnull %0, i64 noundef %3) #19
  %6 = load i32, ptr @_ZN28java_lang_Thread_FieldHolder14_daemon_offsetE, align 4
  %7 = ptrtoint ptr %5 to i64
  %8 = sext i32 %6 to i64
  %9 = add nsw i64 %8, %7
  %10 = inttoptr i64 %9 to ptr
  store i8 1, ptr %10, align 1
  ret void
}